Certificate:
    Data:
        Version: 3 (0x2)
        Serial Number: 2 (0x2)
    Signature Algorithm: sha256WithRSAEncryption
        Issuer: C=JP, ST=Tokyo, O=ex BBB, CN=BBB ROOT C 1024
        Validity
            Not Before: Jul 20 02:40:57 2018 GMT
            Not After : Jul 17 02:40:57 2028 GMT
        Subject: C=JP, ST=Tokyo, O=AAA Corporation, CN=AAA ROOT C 2048
        Subject Public Key Info:
            Public Key Algorithm: rsaEncryption
                Public-Key: (2048 bit)
                Modulus:
                    00:c6:bb:a3:27:cc:06:28:d3:ec:47:4a:1b:15:52:
                    aa:f1:25:da:3a:37:da:39:7e:82:10:c6:23:c7:b7:
                    97:fc:18:14:83:68:ee:80:a7:2a:c3:a4:03:3b:13:
                    ee:cc:78:b2:9f:75:29:ba:8b:a5:f6:19:cd:63:a0:
                    b2:6a:11:f4:45:9f:1c:e1:93:52:4e:1c:9f:42:b5:
                    0a:ef:26:b5:60:d5:26:d9:a5:b4:49:11:38:02:c7:
                    df:93:96:e0:24:41:ce:7e:fd:b4:20:17:12:6f:be:
                    d2:5a:75:9c:69:1e:49:51:b3:6c:7b:e7:89:90:df:
                    5d:11:d1:82:77:c3:45:de:1f:74:cb:db:ba:ad:2c:
                    b6:91:80:5a:8f:62:50:55:ea:a3:1d:c5:e7:58:f6:
                    eb:9e:0f:e1:61:5d:61:15:95:3c:a9:d7:47:d4:67:
                    87:53:6b:1b:95:d1:82:58:1e:cf:55:d1:b8:50:2e:
                    bb:36:1d:94:3e:43:2f:8d:47:67:2d:74:d9:e7:f4:
                    77:46:9c:e9:6c:4b:01:f5:40:03:4b:ed:ce:53:0e:
                    63:73:4a:2a:b6:b8:2c:ee:d9:0f:21:ac:a4:07:ab:
                    85:40:4f:29:d1:a2:ba:3e:8a:c5:81:47:ac:2e:7d:
                    d0:f9:e1:ea:e5:42:f1:93:e1:8a:0c:09:53:0b:b9:
                    7e:ad
                Exponent: 65537 (0x10001)
        X509v3 extensions:
            X509v3 Subject Key Identifier: 
                72:86:1C:A1:A2:9E:56:1C:3C:0D:61:89:72:56:34:CB:C8:54:0D:AE
            X509v3 Authority Key Identifier: 
                keyid:C3:59:B7:C9:BA:6F:E0:81:A3:E6:B4:D8:86:4B:4E:83:45:ED:35:B9
                DirName:/C=JP/ST=Tokyo/O=ex BBB/CN=BBB ROOT C 1024
                serial:01

            X509v3 Basic Constraints: 
                CA:TRUE
    Signature Algorithm: sha256WithRSAEncryption
         b2:6e:21:1f:e4:31:34:06:c4:43:1b:46:bf:5f:8a:5a:30:3e:
         c7:08:ef:68:1b:87:28:3b:f6:67:34:c8:fd:6e:50:56:dc:75:
         c4:15:8f:f3:24:27:02:0c:cc:a8:73:54:82:ba:75:39:d3:37:
         66:4c:68:e5:a2:82:6b:2f:b2:83:ca:99:f4:95:4a:4c:3b:ae:
         13:ec:5a:43:0c:d0:e5:03:5f:9a:47:65:34:3e:f1:32:b1:65:
         72:78:d9:42:5c:b9:68:2d:19:8d:f9:17:87:90:9d:4e:7e:e4:
         e4:66:62:d3:31:b7:85:97:d9:9c:e9:77:52:fb:db:57:98:c1:
         b8:39
-----BEGIN CERTIFICATE-----
MIIDNjCCAp+gAwIBAgIBAjANBgkqhkiG9w0BAQsFADBIMQswCQYDVQQGEwJKUDEO
MAwGA1UECAwFVG9reW8xDzANBgNVBAoMBmV4IEJCQjEYMBYGA1UEAwwPQkJCIFJP
T1QgQyAxMDI0MB4XDTE4MDcyMDAyNDA1N1oXDTI4MDcxNzAyNDA1N1owUTELMAkG
A1UEBhMCSlAxDjAMBgNVBAgMBVRva3lvMRgwFgYDVQQKDA9BQUEgQ29ycG9yYXRp
b24xGDAWBgNVBAMMD0FBQSBST09UIEMgMjA0ODCCASIwDQYJKoZIhvcNAQEBBQAD
ggEPADCCAQoCggEBAMa7oyfMBijT7EdKGxVSqvEl2jo32jl+ghDGI8e3l/wYFINo
7oCnKsOkAzsT7sx4sp91KbqLpfYZzWOgsmoR9EWfHOGTUk4cn0K1Cu8mtWDVJtml
tEkROALH35OW4CRBzn79tCAXEm++0lp1nGkeSVGzbHvniZDfXRHRgnfDRd4fdMvb
uq0stpGAWo9iUFXqox3F51j2654P4WFdYRWVPKnXR9Rnh1NrG5XRglgez1XRuFAu
uzYdlD5DL41HZy102ef0d0ac6WxLAfVAA0vtzlMOY3NKKra4LO7ZDyGspAerhUBP
KdGiuj6KxYFHrC590Pnh6uVC8ZPhigwJUwu5fq0CAwEAAaOBojCBnzAdBgNVHQ4E
FgQUcoYcoaKeVhw8DWGJclY0y8hUDa4wcAYDVR0jBGkwZ4AUw1m3ybpv4IGj5rTY
hktOg0XtNbmhTKRKMEgxCzAJBgNVBAYTAkpQMQ4wDAYDVQQIDAVUb2t5bzEPMA0G
A1UECgwGZXggQkJCMRgwFgYDVQQDDA9CQkIgUk9PVCBDIDEwMjSCAQEwDAYDVR0T
BAUwAwEB/zANBgkqhkiG9w0BAQsFAAOBgQCybiEf5DE0BsRDG0a/X4paMD7HCO9o
G4coO/ZnNMj9blBW3HXEFY/zJCcCDMyoc1SCunU50zdmTGjlooJrL7KDypn0lUpM
O64T7FpDDNDlA1+aR2U0PvEysWVyeNlCXLloLRmN+ReHkJ1OfuTkZmLTMbeFl9mc
6XdS+9tXmMG4OQ==
-----END CERTIFICATE-----
