Certificate:
    Data:
        Version: 3 (0x2)
        Serial Number: 1 (0x1)
    Signature Algorithm: sha256WithRSAEncryption
        Issuer: C=JP, ST=Tokyo, O=ex BBB, CN=BBB ROOT C 1024
        Validity
            Not Before: Jul 17 03:42:34 2018 GMT
            Not After : Jul 14 03:42:34 2028 GMT
        Subject: C=JP, ST=Tokyo, O=ex BBB, CN=BBB ROOT C 1024
        Subject Public Key Info:
            Public Key Algorithm: rsaEncryption
                Public-Key: (1024 bit)
                Modulus:
                    00:c2:6e:51:4b:e3:df:6a:c7:7e:4e:d1:0d:b6:80:
                    6d:74:74:83:78:93:f5:fa:d8:6b:ff:d8:2f:5c:cf:
                    ec:f1:6d:eb:e3:cb:4d:fd:68:2b:cb:2c:c1:46:1c:
                    25:06:6e:ec:33:d2:ef:78:6a:b2:ac:c5:3f:3e:21:
                    e4:d8:62:e6:f2:0d:70:43:dd:28:ab:3b:f3:6e:0d:
                    df:a9:75:12:c4:20:cf:71:42:57:4b:ca:95:fa:15:
                    6a:fc:78:c7:c2:f0:6b:2d:c6:c8:05:07:6a:2c:62:
                    02:99:f7:b4:91:4c:72:58:1d:40:ca:6e:b6:7c:97:
                    fa:75:58:6d:f7:a6:9d:bb:97
                Exponent: 65537 (0x10001)
        X509v3 extensions:
            X509v3 Subject Key Identifier: 
                C3:59:B7:C9:BA:6F:E0:81:A3:E6:B4:D8:86:4B:4E:83:45:ED:35:B9
            X509v3 Authority Key Identifier: 
                keyid:C3:59:B7:C9:BA:6F:E0:81:A3:E6:B4:D8:86:4B:4E:83:45:ED:35:B9
                DirName:/C=JP/ST=Tokyo/O=ex BBB/CN=BBB ROOT C 1024
                serial:01

            X509v3 Basic Constraints: 
                CA:TRUE
    Signature Algorithm: sha256WithRSAEncryption
         52:ac:38:6f:9f:e9:4d:6b:55:ef:43:71:b4:ab:63:01:ab:bf:
         c5:b9:bf:64:a0:93:ae:5b:f7:34:83:76:b3:55:b0:9b:5a:0d:
         f7:f4:4a:b8:4b:a5:fa:2d:48:aa:6f:2c:4a:8e:74:90:e8:fd:
         dd:72:b8:ed:7a:f4:53:83:56:d2:ea:97:bf:f3:8f:f9:36:9c:
         9f:8e:85:75:2f:f8:82:1d:cd:7d:ea:08:18:18:e6:ab:26:20:
         6b:e3:68:2e:72:a9:26:9f:d4:91:c8:22:dd:0c:1f:4d:1e:ef:
         dd:21:3f:ee:f9:4c:b0:9b:85:64:23:be:59:6f:c6:07:36:21:
         62:c0
-----BEGIN CERTIFICATE-----
MIICqTCCAhKgAwIBAgIBATANBgkqhkiG9w0BAQsFADBIMQswCQYDVQQGEwJKUDEO
MAwGA1UECAwFVG9reW8xDzANBgNVBAoMBmV4IEJCQjEYMBYGA1UEAwwPQkJCIFJP
T1QgQyAxMDI0MB4XDTE4MDcxNzAzNDIzNFoXDTI4MDcxNDAzNDIzNFowSDELMAkG
A1UEBhMCSlAxDjAMBgNVBAgMBVRva3lvMQ8wDQYDVQQKDAZleCBCQkIxGDAWBgNV
BAMMD0JCQiBST09UIEMgMTAyNDCBnzANBgkqhkiG9w0BAQEFAAOBjQAwgYkCgYEA
wm5RS+Pfasd+TtENtoBtdHSDeJP1+thr/9gvXM/s8W3r48tN/WgryyzBRhwlBm7s
M9LveGqyrMU/PiHk2GLm8g1wQ90oqzvzbg3fqXUSxCDPcUJXS8qV+hVq/HjHwvBr
LcbIBQdqLGICmfe0kUxyWB1Aym62fJf6dVht96adu5cCAwEAAaOBojCBnzAdBgNV
HQ4EFgQUw1m3ybpv4IGj5rTYhktOg0XtNbkwcAYDVR0jBGkwZ4AUw1m3ybpv4IGj
5rTYhktOg0XtNbmhTKRKMEgxCzAJBgNVBAYTAkpQMQ4wDAYDVQQIDAVUb2t5bzEP
MA0GA1UECgwGZXggQkJCMRgwFgYDVQQDDA9CQkIgUk9PVCBDIDEwMjSCAQEwDAYD
VR0TBAUwAwEB/zANBgkqhkiG9w0BAQsFAAOBgQBSrDhvn+lNa1XvQ3G0q2MBq7/F
ub9koJOuW/c0g3azVbCbWg339Eq4S6X6LUiqbyxKjnSQ6P3dcrjtevRTg1bS6pe/
84/5NpyfjoV1L/iCHc196ggYGOarJiBr42gucqkmn9SRyCLdDB9NHu/dIT/u+Uyw
m4VkI75Zb8YHNiFiwA==
-----END CERTIFICATE-----
