Certificate:
    Data:
        Version: 3 (0x2)
        Serial Number: 2 (0x2)
    Signature Algorithm: sha256WithRSAEncryption
        Issuer: C=JP, ST=Tokyo, O=ex test, CN=EX ROOT CA 2048
        Validity
            Not Before: Jul 19 01:41:56 2018 GMT
            Not After : Jul 16 01:41:56 2028 GMT
        Subject: C=JP, ST=Tokyo, O=CCC Corporation, CN=CCC Inter CA
        Subject Public Key Info:
            Public Key Algorithm: rsaEncryption
                Public-Key: (2048 bit)
                Modulus:
                    00:be:5d:39:4b:f8:f1:bd:95:e4:16:38:3c:61:95:
                    4d:77:b9:09:db:cd:71:d2:3f:ef:68:03:fb:3e:c5:
                    41:3d:e8:d6:31:62:3c:7f:d3:aa:98:7b:7a:25:7c:
                    fa:9f:e4:ef:26:19:45:95:a9:36:c1:5b:fe:e5:78:
                    33:e2:d0:ef:6d:3c:91:b5:d5:e1:81:bf:00:fc:06:
                    0c:9b:9c:df:4f:43:1f:51:18:fb:b6:4e:a1:23:2a:
                    2e:44:9e:0a:b0:dc:a9:98:ba:2e:7d:c5:4a:f5:5c:
                    a9:cc:8b:9b:7a:f4:b5:b1:eb:0b:85:e3:cf:5e:44:
                    3a:88:68:87:48:4c:cf:0d:98:bb:01:66:84:b2:28:
                    fc:0b:73:0f:1d:9f:62:ea:95:4f:ea:7e:f5:ae:34:
                    62:1f:c1:6d:d3:cb:90:90:d0:51:44:c5:b0:f9:50:
                    67:9d:56:2b:e9:09:81:02:d1:85:a7:b5:5c:80:ee:
                    68:0c:7f:10:d8:0c:a7:bd:92:7a:47:84:e8:0f:e6:
                    aa:77:d0:f7:48:bd:ee:96:89:57:79:a5:49:77:38:
                    cc:01:d0:1b:77:e2:8f:e2:41:32:ef:38:43:73:6b:
                    4f:2c:c5:1a:2e:69:4c:e0:f5:dc:27:68:b3:d5:a9:
                    c7:5a:5c:47:85:7b:39:1c:9e:6e:4d:71:d2:b0:42:
                    44:6d
                Exponent: 65537 (0x10001)
        X509v3 extensions:
            X509v3 Subject Key Identifier: 
                F0:68:29:C2:32:93:FE:36:D3:40:2C:EE:B5:4E:36:64:AD:C8:A6:FB
            X509v3 Authority Key Identifier: 
                keyid:72:86:1C:A1:A2:9E:56:1C:3C:0D:61:89:72:56:34:CB:C8:54:0D:AE
                DirName:/C=JP/ST=Tokyo/O=ex test/CN=EX ROOT CA 2048
                serial:01

            X509v3 Basic Constraints: 
                CA:TRUE
    Signature Algorithm: sha256WithRSAEncryption
         9c:d8:da:35:32:27:8d:9f:cf:a0:bd:d3:0e:2a:50:00:37:15:
         2c:33:46:e6:a7:7d:3d:47:cb:8c:5b:bb:22:4b:95:7e:e0:11:
         a8:1d:7a:86:c0:d5:80:0c:84:1c:39:70:9e:ff:68:60:e1:3a:
         3a:d4:0b:50:8b:94:53:15:db:96:b9:b5:33:f7:67:0e:1e:bc:
         76:03:1d:fb:48:fe:12:0d:06:82:48:5b:93:31:7d:2d:72:c7:
         a1:48:d2:2a:ed:85:5d:9a:69:e4:3b:c7:9c:16:1b:c3:44:42:
         a2:e2:0d:d1:73:28:04:68:3f:c9:6e:2a:cb:cc:16:88:d9:73:
         86:41:46:a3:ef:2d:1d:48:24:1c:3e:0c:65:99:c6:0e:d3:c3:
         43:21:50:fa:f1:b7:da:4f:ca:df:e5:be:da:f8:fa:cb:39:93:
         6d:7e:68:95:b8:99:80:2a:44:06:e2:1f:92:56:c8:36:b3:bc:
         20:43:e4:bc:36:31:44:58:8a:c2:c1:3c:87:92:c9:45:3a:5a:
         43:57:de:4f:83:de:bc:cd:20:b0:d7:1a:13:a7:ab:eb:6a:57:
         06:59:00:ee:ca:b6:b5:25:d6:d4:c9:9a:d7:f6:b1:ae:d4:55:
         58:1b:4b:bc:27:9b:6d:c4:ff:f2:10:fa:1d:65:0d:4a:14:3e:
         44:68:51:a8
-----BEGIN CERTIFICATE-----
MIIDtjCCAp6gAwIBAgIBAjANBgkqhkiG9w0BAQsFADBJMQswCQYDVQQGEwJKUDEO
MAwGA1UECAwFVG9reW8xEDAOBgNVBAoMB2V4IHRlc3QxGDAWBgNVBAMMD0VYIFJP
T1QgQ0EgMjA0ODAeFw0xODA3MTkwMTQxNTZaFw0yODA3MTYwMTQxNTZaME4xCzAJ
BgNVBAYTAkpQMQ4wDAYDVQQIDAVUb2t5bzEYMBYGA1UECgwPQ0NDIENvcnBvcmF0
aW9uMRUwEwYDVQQDDAxDQ0MgSW50ZXIgQ0EwggEiMA0GCSqGSIb3DQEBAQUAA4IB
DwAwggEKAoIBAQC+XTlL+PG9leQWODxhlU13uQnbzXHSP+9oA/s+xUE96NYxYjx/
06qYe3olfPqf5O8mGUWVqTbBW/7leDPi0O9tPJG11eGBvwD8BgybnN9PQx9RGPu2
TqEjKi5Engqw3KmYui59xUr1XKnMi5t69LWx6wuF489eRDqIaIdITM8NmLsBZoSy
KPwLcw8dn2LqlU/qfvWuNGIfwW3Ty5CQ0FFExbD5UGedVivpCYEC0YWntVyA7mgM
fxDYDKe9knpHhOgP5qp30PdIve6WiVd5pUl3OMwB0Bt34o/iQTLvOENza08sxRou
aUzg9dwnaLPVqcdaXEeFezkcnm5NcdKwQkRtAgMBAAGjgaMwgaAwHQYDVR0OBBYE
FPBoKcIyk/4200As7rVONmStyKb7MHEGA1UdIwRqMGiAFHKGHKGinlYcPA1hiXJW
NMvIVA2uoU2kSzBJMQswCQYDVQQGEwJKUDEOMAwGA1UECAwFVG9reW8xEDAOBgNV
BAoMB2V4IHRlc3QxGDAWBgNVBAMMD0VYIFJPT1QgQ0EgMjA0OIIBATAMBgNVHRME
BTADAQH/MA0GCSqGSIb3DQEBCwUAA4IBAQCc2No1MieNn8+gvdMOKlAANxUsM0bm
p309R8uMW7siS5V+4BGoHXqGwNWADIQcOXCe/2hg4To61AtQi5RTFduWubUz92cO
Hrx2Ax37SP4SDQaCSFuTMX0tcsehSNIq7YVdmmnkO8ecFhvDREKi4g3RcygEaD/J
birLzBaI2XOGQUaj7y0dSCQcPgxlmcYO08NDIVD68bfaT8rf5b7a+PrLOZNtfmiV
uJmAKkQG4h+SVsg2s7wgQ+S8NjFEWIrCwTyHkslFOlpDV95Pg968zSCw1xoTp6vr
alcGWQDuyra1JdbUyZrX9rGu1FVYG0u8J5ttxP/yEPodZQ1KFD5EaFGo
-----END CERTIFICATE-----
