Certificate:
    Data:
        Version: 3 (0x2)
        Serial Number: 1 (0x1)
    Signature Algorithm: sha256WithRSAEncryption
        Issuer: C=JP, ST=Tokyo, O=ex test, CN=EX ROOT CA 2048
        Validity
            Not Before: Jul 17 03:40:32 2018 GMT
            Not After : Jul 14 03:40:32 2028 GMT
        Subject: C=JP, ST=Tokyo, O=ex test, CN=EX ROOT CA 2048
        Subject Public Key Info:
            Public Key Algorithm: rsaEncryption
                Public-Key: (2048 bit)
                Modulus:
                    00:c6:bb:a3:27:cc:06:28:d3:ec:47:4a:1b:15:52:
                    aa:f1:25:da:3a:37:da:39:7e:82:10:c6:23:c7:b7:
                    97:fc:18:14:83:68:ee:80:a7:2a:c3:a4:03:3b:13:
                    ee:cc:78:b2:9f:75:29:ba:8b:a5:f6:19:cd:63:a0:
                    b2:6a:11:f4:45:9f:1c:e1:93:52:4e:1c:9f:42:b5:
                    0a:ef:26:b5:60:d5:26:d9:a5:b4:49:11:38:02:c7:
                    df:93:96:e0:24:41:ce:7e:fd:b4:20:17:12:6f:be:
                    d2:5a:75:9c:69:1e:49:51:b3:6c:7b:e7:89:90:df:
                    5d:11:d1:82:77:c3:45:de:1f:74:cb:db:ba:ad:2c:
                    b6:91:80:5a:8f:62:50:55:ea:a3:1d:c5:e7:58:f6:
                    eb:9e:0f:e1:61:5d:61:15:95:3c:a9:d7:47:d4:67:
                    87:53:6b:1b:95:d1:82:58:1e:cf:55:d1:b8:50:2e:
                    bb:36:1d:94:3e:43:2f:8d:47:67:2d:74:d9:e7:f4:
                    77:46:9c:e9:6c:4b:01:f5:40:03:4b:ed:ce:53:0e:
                    63:73:4a:2a:b6:b8:2c:ee:d9:0f:21:ac:a4:07:ab:
                    85:40:4f:29:d1:a2:ba:3e:8a:c5:81:47:ac:2e:7d:
                    d0:f9:e1:ea:e5:42:f1:93:e1:8a:0c:09:53:0b:b9:
                    7e:ad
                Exponent: 65537 (0x10001)
        X509v3 extensions:
            X509v3 Subject Key Identifier: 
                72:86:1C:A1:A2:9E:56:1C:3C:0D:61:89:72:56:34:CB:C8:54:0D:AE
            X509v3 Authority Key Identifier: 
                keyid:72:86:1C:A1:A2:9E:56:1C:3C:0D:61:89:72:56:34:CB:C8:54:0D:AE
                DirName:/C=JP/ST=Tokyo/O=ex test/CN=EX ROOT CA 2048
                serial:01

            X509v3 Basic Constraints: 
                CA:TRUE
    Signature Algorithm: sha256WithRSAEncryption
         22:e2:e1:67:20:0c:d5:09:23:75:08:0e:d0:5d:58:c7:86:da:
         5d:d8:55:70:f4:6b:41:d9:74:86:b6:fc:6d:dd:50:80:c8:ef:
         02:52:63:2d:a3:2e:66:3f:98:8a:cb:b4:9e:7b:b0:75:39:e9:
         ff:9e:30:ab:95:1b:3a:70:c3:46:80:c1:98:8e:08:2d:e9:27:
         a6:3d:bc:f6:0e:6c:8c:0d:10:b8:1f:7a:83:74:a4:44:88:52:
         9b:5a:55:c8:b2:75:51:b9:ce:18:8f:02:d6:ab:bc:45:c6:f3:
         e4:5f:c0:5c:5b:c7:3f:91:64:fc:f6:6c:e1:a9:0a:a2:74:de:
         c3:48:aa:78:24:0b:12:f2:02:08:fc:f9:a0:2c:00:d1:a5:55:
         fa:44:3c:07:2a:32:a3:de:96:c3:f8:43:73:d2:2e:b4:46:30:
         ae:d1:c2:0a:6b:e3:b3:e3:24:69:4b:ff:43:b9:aa:d8:f8:85:
         d9:84:94:b1:68:09:63:98:9c:e3:fd:23:54:57:cc:35:7c:bf:
         70:cf:3f:47:d0:d8:72:38:ef:84:e1:25:90:b6:63:85:dc:61:
         c7:fb:48:ef:7c:12:db:a6:77:17:c2:07:e0:1b:da:a8:83:9f:
         af:76:2b:cf:ef:64:9a:e4:b6:ee:bc:8c:5e:55:89:26:c0:8d:
         9a:12:eb:fb
-----BEGIN CERTIFICATE-----
MIIDsTCCApmgAwIBAgIBATANBgkqhkiG9w0BAQsFADBJMQswCQYDVQQGEwJKUDEO
MAwGA1UECAwFVG9reW8xEDAOBgNVBAoMB2V4IHRlc3QxGDAWBgNVBAMMD0VYIFJP
T1QgQ0EgMjA0ODAeFw0xODA3MTcwMzQwMzJaFw0yODA3MTQwMzQwMzJaMEkxCzAJ
BgNVBAYTAkpQMQ4wDAYDVQQIDAVUb2t5bzEQMA4GA1UECgwHZXggdGVzdDEYMBYG
A1UEAwwPRVggUk9PVCBDQSAyMDQ4MIIBIjANBgkqhkiG9w0BAQEFAAOCAQ8AMIIB
CgKCAQEAxrujJ8wGKNPsR0obFVKq8SXaOjfaOX6CEMYjx7eX/BgUg2jugKcqw6QD
OxPuzHiyn3Upuoul9hnNY6CyahH0RZ8c4ZNSThyfQrUK7ya1YNUm2aW0SRE4Asff
k5bgJEHOfv20IBcSb77SWnWcaR5JUbNse+eJkN9dEdGCd8NF3h90y9u6rSy2kYBa
j2JQVeqjHcXnWPbrng/hYV1hFZU8qddH1GeHU2sbldGCWB7PVdG4UC67Nh2UPkMv
jUdnLXTZ5/R3RpzpbEsB9UADS+3OUw5jc0oqtrgs7tkPIaykB6uFQE8p0aK6PorF
gUesLn3Q+eHq5ULxk+GKDAlTC7l+rQIDAQABo4GjMIGgMB0GA1UdDgQWBBRyhhyh
op5WHDwNYYlyVjTLyFQNrjBxBgNVHSMEajBogBRyhhyhop5WHDwNYYlyVjTLyFQN
rqFNpEswSTELMAkGA1UEBhMCSlAxDjAMBgNVBAgMBVRva3lvMRAwDgYDVQQKDAdl
eCB0ZXN0MRgwFgYDVQQDDA9FWCBST09UIENBIDIwNDiCAQEwDAYDVR0TBAUwAwEB
/zANBgkqhkiG9w0BAQsFAAOCAQEAIuLhZyAM1QkjdQgO0F1Yx4baXdhVcPRrQdl0
hrb8bd1QgMjvAlJjLaMuZj+Yisu0nnuwdTnp/54wq5UbOnDDRoDBmI4ILeknpj28
9g5sjA0QuB96g3SkRIhSm1pVyLJ1UbnOGI8C1qu8Rcbz5F/AXFvHP5Fk/PZs4akK
onTew0iqeCQLEvICCPz5oCwA0aVV+kQ8Byoyo96Ww/hDc9IutEYwrtHCCmvjs+Mk
aUv/Q7mq2PiF2YSUsWgJY5ic4/0jVFfMNXy/cM8/R9DYcjjvhOElkLZjhdxhx/tI
73wS26Z3F8IH4BvaqIOfr3Yrz+9kmuS27ryMXlWJJsCNmhLr+w==
-----END CERTIFICATE-----
